target datalayout = "e-m:e-p270:32:32-p271:32:32-p272:64:64-i64:64-i128:128-f80:128-n8:16:32:64-S128"
target triple = "x86_64-pc-linux-gnu"

%struct.asn1_string_st = type { i32, i32, ptr, i64 }

; Function Attrs: nounwind uwtable
define hidden ptr @X509_time_adj_ex(ptr noundef %0, i32 noundef %1, i64 noundef %2, ptr noundef %3) #0 {
  %5 = alloca ptr, align 8
  %6 = alloca ptr, align 8
  %7 = alloca i32, align 4
  %8 = alloca i64, align 8
  %9 = alloca ptr, align 8
  %10 = alloca i64, align 8
  %11 = alloca i32, align 4
  store ptr %0, ptr %6, align 8, !tbaa !90
  store i32 %1, ptr %7, align 4, !tbaa !13
  store i64 %2, ptr %8, align 8, !tbaa !63
  store ptr %3, ptr %9, align 8, !tbaa !91
  call void @llvm.lifetime.start.p0(i64 8, ptr %10) #8
  store i64 0, ptr %10, align 8, !tbaa !63
  %12 = load ptr, ptr %9, align 8, !tbaa !91
  %13 = icmp ne ptr %12, null
  br i1 %13, label %14, label %17

14:                                               ; preds = %4
  %15 = load ptr, ptr %9, align 8, !tbaa !91
  %16 = load i64, ptr %15, align 8, !tbaa !63
  store i64 %16, ptr %10, align 8, !tbaa !63
  br label %19

17:                                               ; preds = %4
  %18 = call i64 @time(ptr noundef %10) #8
  br label %19

19:                                               ; preds = %17, %14
  %20 = load ptr, ptr %6, align 8, !tbaa !90
  %21 = icmp ne ptr %20, null
  br i1 %21, label %22, label %51

22:                                               ; preds = %19
  %23 = load ptr, ptr %6, align 8, !tbaa !90
  %24 = getelementptr inbounds nuw %struct.asn1_string_st, ptr %23, i32 0, i32 3
  %25 = load i64, ptr %24, align 8, !tbaa !100
  %26 = and i64 %25, 64
  %27 = icmp ne i64 %26, 0
  br i1 %27, label %51, label %28

28:                                               ; preds = %22
  %29 = load ptr, ptr %6, align 8, !tbaa !90
  %30 = getelementptr inbounds nuw %struct.asn1_string_st, ptr %29, i32 0, i32 1
  %31 = load i32, ptr %30, align 4, !tbaa !97
  %32 = icmp eq i32 %31, 23
  br i1 %32, label %33, label %39

33:                                               ; preds = %28
  %34 = load ptr, ptr %6, align 8, !tbaa !90
  %35 = load i64, ptr %10, align 8, !tbaa !63
  %36 = load i32, ptr %7, align 4, !tbaa !13
  %37 = load i64, ptr %8, align 8, !tbaa !63
  %38 = call ptr @ASN1_UTCTIME_adj(ptr noundef %34, i64 noundef %35, i32 noundef %36, i64 noundef %37)
  store ptr %38, ptr %5, align 8
  store i32 1, ptr %11, align 4
  br label %57

39:                                               ; preds = %28
  %40 = load ptr, ptr %6, align 8, !tbaa !90
  %41 = getelementptr inbounds nuw %struct.asn1_string_st, ptr %40, i32 0, i32 1
  %42 = load i32, ptr %41, align 4, !tbaa !97
  %43 = icmp eq i32 %42, 24
  br i1 %43, label %44, label %50

44:                                               ; preds = %39
  %45 = load ptr, ptr %6, align 8, !tbaa !90
  %46 = load i64, ptr %10, align 8, !tbaa !63
  %47 = load i32, ptr %7, align 4, !tbaa !13
  %48 = load i64, ptr %8, align 8, !tbaa !63
  %49 = call ptr @ASN1_GENERALIZEDTIME_adj(ptr noundef %45, i64 noundef %46, i32 noundef %47, i64 noundef %48)
  store ptr %49, ptr %5, align 8
  store i32 1, ptr %11, align 4
  br label %57

50:                                               ; preds = %39
  br label %51

51:                                               ; preds = %50, %22, %19
  %52 = load ptr, ptr %6, align 8, !tbaa !90
  %53 = load i64, ptr %10, align 8, !tbaa !63
  %54 = load i32, ptr %7, align 4, !tbaa !13
  %55 = load i64, ptr %8, align 8, !tbaa !63
  %56 = call ptr @ASN1_TIME_adj(ptr noundef %52, i64 noundef %53, i32 noundef %54, i64 noundef %55)
  store ptr %56, ptr %5, align 8
  store i32 1, ptr %11, align 4
  br label %57

57:                                               ; preds = %51, %44, %33
  call void @llvm.lifetime.end.p0(i64 8, ptr %10) #8
  %58 = load ptr, ptr %5, align 8
  ret ptr %58
}