; Function Attrs: nounwind uwtable
define hidden ptr @X509_time_adj_ex(ptr noundef %0, i32 noundef %1, i64 noundef %2, ptr noundef readonly captures(address_is_null) %3) local_unnamed_addr #0 {
  %5 = alloca i64, align 8
  call void @llvm.lifetime.start.p0(i64 8, ptr nonnull %5) #14
  store i64 0, ptr %5, align 8, !tbaa !103
  %.not = icmp eq ptr %3, null
  br i1 %.not, label %8, label %6

6:                                                ; preds = %4
  %7 = load i64, ptr %3, align 8, !tbaa !103
  store i64 %7, ptr %5, align 8, !tbaa !103
  br label %10

8:                                                ; preds = %4
  %9 = call i64 @time(ptr noundef nonnull %5) #14
  br label %10

10:                                               ; preds = %8, %6
  %.not18 = icmp eq ptr %0, null
  br i1 %.not18, label %24, label %11

11:                                               ; preds = %10
  %12 = getelementptr inbounds nuw i8, ptr %0, i64 16
  %13 = load i64, ptr %12, align 8, !tbaa !102
  %14 = and i64 %13, 64
  %.not19 = icmp eq i64 %14, 0
  br i1 %.not19, label %15, label %24

15:                                               ; preds = %11
  %16 = getelementptr inbounds nuw i8, ptr %0, i64 4
  %17 = load i32, ptr %16, align 4, !tbaa !99
  switch i32 %17, label %24 [
    i32 23, label %18
    i32 24, label %21
  ]

18:                                               ; preds = %15
  %19 = load i64, ptr %5, align 8, !tbaa !103
  %20 = call ptr @ASN1_UTCTIME_adj(ptr noundef nonnull %0, i64 noundef %19, i32 noundef %1, i64 noundef %2) #14
  br label %27

21:                                               ; preds = %15
  %22 = load i64, ptr %5, align 8, !tbaa !103
  %23 = call ptr @ASN1_GENERALIZEDTIME_adj(ptr noundef nonnull %0, i64 noundef %22, i32 noundef %1, i64 noundef %2) #14
  br label %27

24:                                               ; preds = %15, %11, %10
  %25 = load i64, ptr %5, align 8, !tbaa !103
  %26 = call ptr @ASN1_TIME_adj(ptr noundef %0, i64 noundef %25, i32 noundef %1, i64 noundef %2) #14
  br label %27

27:                                               ; preds = %24, %21, %18
  %.0 = phi ptr [ %26, %24 ], [ %20, %18 ], [ %23, %21 ]
  call void @llvm.lifetime.end.p0(i64 8, ptr nonnull %5) #14
  ret ptr %.0
}